(dp0
I512
(lp1
I502
aI503
aI508
aI513
aI515
aI524
aI525
aI717
aI728
asI513
(lp2
I502
aI503
aI507
aI508
aI510
aI512
aI518
aI523
asI733
(lp3
I213
aI704
aI708
aI719
aI720
aI726
asI515
(lp4
I502
aI512
aI524
aI703
aI705
asI516
(lp5
I507
aI523
aI526
aI527
asI517
(lp6
I502
aI511
aI529
aI530
aI703
asI518
(lp7
I102
aI106
aI508
aI513
aI519
aI521
aI523
aI717
asI519
(lp8
I102
aI104
aI106
aI508
aI518
aI522
aI717
asI520
(lp9
I501
aI505
aI506
asI521
(lp10
I102
aI106
aI110
aI518
aI523
aI531
asI522
(lp11
I104
aI106
aI519
aI528
aI717
aI718
asI523
(lp12
I507
aI513
aI516
aI518
aI521
aI527
aI531
asI524
(lp13
I512
aI515
aI525
aI705
aI710
aI728
asI525
(lp14
I512
aI524
aI728
asI526
(lp15
I409
aI516
aI527
asI527
(lp16
I111
aI409
aI418
aI516
aI523
aI526
aI531
asI528
(lp17
I104
aI116
aI124
aI522
aI711
aI718
asI529
(lp18
I505
aI506
aI517
aI530
asI530
(lp19
I501
aI502
aI503
aI506
aI510
aI511
aI517
aI529
asI531
(lp20
I110
aI111
aI521
aI523
aI527
asI617
(lp21
I616
aI622
aI628
asI720
(lp22
I213
aI216
aI719
aI733
asI839
(lp23
I618
aI628
aI815
aI825
aI845
aI850
asI614
(lp24
I405
aI413
aI605
aI610
aI611
aI613
aI615
asI616
(lp25
I613
aI617
aI619
aI622
aI625
aI627
asI923
(lp26
I901
aI915
aI924
aI925
asI921
(lp27
I903
aI904
aI910
aI915
aI917
aI924
asI601
(lp28
I405
aI602
aI604
aI607
aI609
aI621
asI602
(lp29
I601
aI609
aI621
asI604
(lp30
I405
aI601
aI608
aI609
asI605
(lp31
I606
aI611
aI612
aI613
aI614
asI606
(lp32
I605
aI608
aI609
aI610
aI611
aI612
asI607
(lp33
I402
aI405
aI408
aI425
aI601
aI621
asI608
(lp34
I405
aI604
aI606
aI609
aI610
asI609
(lp35
I601
aI602
aI604
aI606
aI608
asI610
(lp36
I405
aI606
aI608
aI611
aI612
aI614
asI611
(lp37
I605
aI606
aI610
aI612
aI614
asI612
(lp38
I605
aI606
aI610
aI611
asI613
(lp39
I605
aI614
aI615
aI616
aI619
aI627
asI102
(lp40
I106
aI518
aI519
aI521
asI615
(lp41
I413
aI613
aI614
aI627
asI104
(lp42
I106
aI108
aI113
aI115
aI116
aI519
aI522
aI528
asI105
(lp43
I118
aI120
aI126
aI127
aI130
aI805
aI841
asI106
(lp44
I102
aI104
aI110
aI115
aI518
aI519
aI521
aI522
asI619
(lp45
I406
aI409
aI420
aI424
aI427
aI613
aI616
aI625
aI627
asI108
(lp46
I104
aI111
aI113
aI115
aI122
aI125
aI128
aI415
aI801
asI109
(lp47
I117
aI118
aI123
aI124
asI110
(lp48
I106
aI111
aI115
aI521
aI531
asI111
(lp49
I108
aI110
aI115
aI128
aI415
aI418
aI527
aI531
asI624
(lp50
I618
aI626
aI811
aI812
aI824
aI838
asI113
(lp51
I104
aI108
aI116
aI122
aI124
asI626
(lp52
I618
aI622
aI623
aI624
aI628
aI811
aI812
aI840
asI115
(lp53
I104
aI106
aI108
aI110
aI111
asI116
(lp54
I104
aI113
aI124
aI528
asI117
(lp55
I109
aI120
aI121
aI123
aI124
aI711
aI841
asI118
(lp56
I105
aI109
aI119
aI122
aI123
aI124
aI125
aI126
aI127
aI801
asI119
(lp57
I118
aI120
aI123
aI126
asI120
(lp58
I105
aI117
aI119
aI121
aI123
aI126
aI805
aI841
asI121
(lp59
I117
aI120
aI841
aI852
aI853
asI122
(lp60
I108
aI113
aI118
aI124
aI125
asI123
(lp61
I109
aI117
aI118
aI119
aI120
asI124
(lp62
I109
aI113
aI116
aI117
aI118
aI122
aI528
aI711
asI125
(lp63
I108
aI118
aI122
aI801
asI126
(lp64
I105
aI118
aI119
aI120
asI127
(lp65
I105
aI118
aI130
aI801
aI833
aI842
asI128
(lp66
I108
aI111
aI129
aI415
aI801
aI827
asI129
(lp67
I128
aI415
aI827
aI840
asI130
(lp68
I105
aI127
aI805
aI815
aI833
aI842
asI618
(lp69
I624
aI626
aI628
aI838
aI839
aI850
asI621
(lp70
I402
aI601
aI602
aI607
asI622
(lp71
I616
aI617
aI623
aI625
aI626
aI628
asI623
(lp72
I409
aI417
aI622
aI625
aI626
aI840
asI625
(lp73
I409
aI616
aI619
aI622
aI623
asI627
(lp74
I413
aI424
aI613
aI615
aI616
aI619
asI628
(lp75
I617
aI618
aI622
aI626
aI839
aI845
asI701
(lp76
I709
aI727
aI729
aI732
asI703
(lp77
I502
aI515
aI517
aI705
aI706
asI704
(lp78
I213
aI214
aI219
aI726
aI731
aI733
asI705
(lp79
I515
aI524
aI703
aI706
aI710
asI706
(lp80
I703
aI705
aI710
aI713
asI707
(lp81
I709
aI711
aI714
aI718
aI721
asI708
(lp82
I315
aI317
aI712
aI713
aI719
aI726
aI733
asI709
(lp83
I701
aI707
aI714
aI729
asI710
(lp84
I524
aI705
aI706
aI713
aI717
aI721
aI728
asI711
(lp85
I117
aI124
aI528
aI707
aI718
asI712
(lp86
I708
aI713
asI713
(lp87
I706
aI708
aI710
aI712
aI719
aI721
asI202
(lp88
I214
aI218
aI221
aI223
aI226
aI227
aI727
aI729
aI914
asI203
(lp89
I220
aI229
aI235
aI237
aI905
aI908
asI717
(lp90
I508
aI512
aI518
aI519
aI522
aI710
aI718
aI721
aI728
asI718
(lp91
I522
aI528
aI707
aI711
aI714
aI717
aI721
asI719
(lp92
I216
aI708
aI713
aI714
aI720
aI721
aI733
asI208
(lp93
I209
aI220
aI222
aI224
aI233
aI234
aI238
asI209
(lp94
I208
aI222
aI224
aI227
aI234
aI330
asI803
(lp95
I805
aI815
aI841
aI845
aI849
aI851
aI918
aI919
aI925
asI213
(lp96
I214
aI216
aI218
aI704
aI720
aI729
aI733
asI214
(lp97
I202
aI213
aI218
aI219
aI226
aI704
asI727
(lp98
I202
aI701
aI729
aI732
aI914
asI216
(lp99
I213
aI714
aI719
aI720
aI729
asI729
(lp100
I202
aI213
aI216
aI218
aI701
aI709
aI714
aI727
asI218
(lp101
I202
aI213
aI214
aI226
aI729
asI219
(lp102
I214
aI226
aI309
aI323
aI704
aI726
aI731
asI220
(lp103
I203
aI208
aI221
aI223
aI224
aI225
aI229
aI235
aI237
aI238
aI324
asI221
(lp104
I202
aI220
aI223
aI229
aI914
aI916
asI222
(lp105
I208
aI209
aI234
asI223
(lp106
I202
aI220
aI221
aI224
aI225
aI227
aI914
asI224
(lp107
I208
aI209
aI220
aI223
aI225
aI227
aI238
asI225
(lp108
I220
aI223
aI224
asI226
(lp109
I202
aI214
aI218
aI219
aI227
aI323
aI330
asI227
(lp110
I202
aI209
aI223
aI224
aI226
aI330
asI229
(lp111
I203
aI220
aI221
aI908
aI916
asI721
(lp112
I707
aI710
aI713
aI714
aI717
aI718
aI719
asI233
(lp113
I208
aI234
aI236
aI238
aI327
aI329
asI234
(lp114
I208
aI209
aI222
aI233
aI238
aI322
aI328
aI329
aI330
asI235
(lp115
I203
aI220
aI237
asI236
(lp116
I233
aI238
aI319
aI324
aI327
asI237
(lp117
I203
aI220
aI235
aI324
aI325
aI905
asI238
(lp118
I208
aI220
aI224
aI233
aI234
aI236
aI319
aI324
asI726
(lp119
I219
aI310
aI314
aI315
aI704
aI708
aI731
aI733
asI728
(lp120
I508
aI512
aI524
aI525
aI710
aI717
asI815
(lp121
I130
aI803
aI805
aI825
aI839
aI842
aI845
asI730
(lp122
I732
aI844
aI852
aI911
aI914
aI916
asI801
(lp123
I108
aI118
aI125
aI127
aI128
aI811
aI812
aI827
aI833
asI731
(lp124
I219
aI309
aI314
aI323
aI331
aI704
aI726
asI805
(lp125
I105
aI120
aI130
aI803
aI815
aI841
aI842
asI732
(lp126
I701
aI727
aI730
aI914
asI811
(lp127
I624
aI626
aI801
aI812
aI824
aI825
aI833
asI812
(lp128
I624
aI626
aI801
aI811
aI827
aI840
asI301
(lp129
I302
aI303
aI311
aI314
aI316
aI318
asI302
(lp130
I301
aI305
aI316
asI303
(lp131
I301
aI304
aI311
aI314
aI331
asI304
(lp132
I303
aI306
aI309
aI311
aI328
aI331
asI305
(lp133
I302
aI307
aI312
aI316
aI318
asI306
(lp134
I304
aI322
aI328
asI307
(lp135
I305
aI312
aI317
asI309
(lp136
I219
aI304
aI323
aI328
aI330
aI331
aI731
asI310
(lp137
I312
aI314
aI315
aI317
aI318
aI726
asI311
(lp138
I301
aI303
aI304
asI312
(lp139
I305
aI307
aI310
aI317
aI318
asI825
(lp140
I811
aI815
aI824
aI833
aI838
aI839
aI842
aI850
asI314
(lp141
I301
aI303
aI310
aI315
aI316
aI318
aI331
aI726
aI731
asI315
(lp142
I310
aI314
aI317
aI708
aI726
asI316
(lp143
I301
aI302
aI305
aI314
aI318
asI317
(lp144
I307
aI310
aI312
aI315
aI708
asI318
(lp145
I301
aI305
aI310
aI312
aI314
aI316
asI319
(lp146
I236
aI238
aI320
aI321
aI324
aI327
asI320
(lp147
I319
aI321
aI324
aI325
asI321
(lp148
I319
aI320
aI327
aI329
asI322
(lp149
I234
aI306
aI328
aI329
aI330
asI323
(lp150
I219
aI226
aI309
aI330
aI731
asI324
(lp151
I220
aI236
aI237
aI238
aI319
aI320
aI325
asI325
(lp152
I237
aI320
aI324
asI838
(lp153
I618
aI624
aI824
aI825
aI850
asI327
(lp154
I233
aI236
aI319
aI321
aI329
asI328
(lp155
I234
aI304
aI306
aI309
aI322
aI330
asI329
(lp156
I233
aI234
aI321
aI322
aI327
asI330
(lp157
I209
aI226
aI227
aI234
aI309
aI322
aI323
aI328
asI331
(lp158
I303
aI304
aI309
aI314
aI731
asI844
(lp159
I730
aI843
aI846
aI848
aI851
aI852
aI911
asI845
(lp160
I628
aI803
aI815
aI839
asI846
(lp161
I843
aI844
aI847
aI911
aI920
asI847
(lp162
I843
aI846
aI902
aI913
aI920
aI928
asI848
(lp163
I843
aI844
aI851
aI852
aI853
asI824
(lp164
I624
aI811
aI825
aI838
asI850
(lp165
I618
aI825
aI838
aI839
asI851
(lp166
I803
aI841
aI843
aI844
aI848
aI853
aI918
aI926
aI928
asI852
(lp167
I121
aI730
aI844
aI848
aI853
asI853
(lp168
I121
aI841
aI848
aI851
aI852
asI827
(lp169
I128
aI129
aI801
aI812
aI840
asI913
(lp170
I843
aI847
aI902
aI903
aI904
aI917
aI928
asI914
(lp171
I202
aI221
aI223
aI727
aI730
aI732
aI916
asI916
(lp172
I221
aI229
aI730
aI908
aI911
aI914
aI920
asI917
(lp173
I901
aI903
aI910
aI913
aI921
aI924
aI926
aI928
asI901
(lp174
I917
aI923
aI924
aI925
aI926
asI902
(lp175
I847
aI903
aI904
aI905
aI913
aI920
aI927
asI833
(lp176
I127
aI130
aI801
aI811
aI825
aI842
asI904
(lp177
I902
aI903
aI905
aI913
aI915
aI921
asI905
(lp178
I203
aI237
aI902
aI904
aI908
aI927
asI908
(lp179
I203
aI229
aI905
aI916
aI920
aI927
asI910
(lp180
I917
aI921
aI924
asI911
(lp181
I730
aI844
aI846
aI916
aI920
asI401
(lp182
I404
aI410
aI422
aI423
asI402
(lp183
I408
aI423
aI607
aI621
asI915
(lp184
I904
aI921
aI923
aI924
asI404
(lp185
I401
aI410
aI419
aI420
aI421
aI422
asI405
(lp186
I411
aI413
aI424
aI425
aI601
aI604
aI607
aI608
aI610
aI614
asI406
(lp187
I410
aI420
aI424
aI619
asI919
(lp188
I803
aI849
aI918
aI925
asI408
(lp189
I402
aI423
aI425
aI607
asI409
(lp190
I417
aI418
aI419
aI422
aI427
aI526
aI527
aI619
aI623
aI625
asI410
(lp191
I401
aI404
aI406
aI411
aI420
aI422
aI423
aI424
aI425
asI411
(lp192
I405
aI410
aI424
aI425
asI924
(lp193
I901
aI910
aI915
aI917
aI921
aI923
aI926
asI413
(lp194
I405
aI424
aI614
aI615
aI627
asI926
(lp195
I843
aI851
aI901
aI917
aI918
aI924
aI925
aI928
asI415
(lp196
I108
aI111
aI128
aI129
aI417
aI418
aI840
asI928
(lp197
I843
aI847
aI851
aI913
aI917
aI926
asI417
(lp198
I409
aI415
aI418
aI426
aI623
aI840
asI418
(lp199
I111
aI409
aI415
aI417
aI527
asI419
(lp200
I404
aI409
aI421
aI422
aI427
asI420
(lp201
I404
aI406
aI410
aI421
aI427
aI619
asI421
(lp202
I404
aI419
aI420
aI427
asI422
(lp203
I401
aI404
aI409
aI410
aI419
asI423
(lp204
I401
aI402
aI408
aI410
aI425
asI424
(lp205
I405
aI406
aI410
aI411
aI413
aI619
aI627
asI425
(lp206
I405
aI408
aI410
aI411
aI423
aI607
asI426
(lp207
I417
aI840
asI427
(lp208
I409
aI419
aI420
aI421
aI619
asI925
(lp209
I803
aI901
aI918
aI919
aI923
aI926
asI840
(lp210
I129
aI415
aI417
aI426
aI623
aI626
aI812
aI827
asI918
(lp211
I803
aI849
aI851
aI919
aI925
aI926
asI841
(lp212
I105
aI117
aI120
aI121
aI803
aI805
aI851
aI853
asI927
(lp213
I902
aI905
aI908
aI920
asI842
(lp214
I127
aI130
aI805
aI815
aI825
aI833
asI843
(lp215
I844
aI846
aI847
aI848
aI851
aI913
aI926
aI928
asI714
(lp216
I216
aI707
aI709
aI718
aI719
aI721
aI729
asI849
(lp217
I803
aI918
aI919
asI920
(lp218
I846
aI847
aI902
aI908
aI911
aI916
aI927
asI903
(lp219
I902
aI904
aI913
aI917
aI921
asI501
(lp220
I503
aI506
aI510
aI520
aI530
asI502
(lp221
I503
aI511
aI512
aI513
aI515
aI517
aI530
aI703
asI503
(lp222
I501
aI502
aI510
aI512
aI513
aI530
asI505
(lp223
I506
aI520
aI529
asI506
(lp224
I501
aI505
aI520
aI529
aI530
asI507
(lp225
I510
aI513
aI516
aI523
asI508
(lp226
I512
aI513
aI518
aI519
aI717
aI728
asI510
(lp227
I501
aI503
aI507
aI513
aI530
asI511
(lp228
I502
aI517
aI530
as.